target datalayout = "e-m:e-p270:32:32-p271:32:32-p272:64:64-i64:64-i128:128-f80:128-n8:16:32:64-S128"
target triple = "x86_64-pc-linux-gnu"

%class.mem_cfg_t = type { i64, i64 }

; Function Attrs: mustprogress nounwind uwtable
define linkonce_odr noundef i64 @_ZNK9mem_cfg_t8get_sizeEv(ptr noundef nonnull align 8 dereferenceable(16) %0) #5 comdat align 2 {
  %2 = alloca ptr, align 8
  store ptr %0, ptr %2, align 8
  %3 = load ptr, ptr %2, align 8
  %4 = getelementptr inbounds %class.mem_cfg_t, ptr %3, i32 0, i32 1
  %5 = load i64, ptr %4, align 8
  ret i64 %5
}

; Function Attrs: mustprogress nounwind uwtable
define linkonce_odr noundef i64 @_ZNK9mem_cfg_t8get_baseEv(ptr noundef nonnull align 8 dereferenceable(16) %0) #5 comdat align 2 {
  %2 = alloca ptr, align 8
  store ptr %0, ptr %2, align 8
  %3 = load ptr, ptr %2, align 8
  %4 = getelementptr inbounds %class.mem_cfg_t, ptr %3, i32 0, i32 0
  %5 = load i64, ptr %4, align 8
  ret i64 %5
}

; Function Attrs: mustprogress uwtable
define noundef zeroext i1 @_Z15sort_mem_regionRK9mem_cfg_tS1_(ptr noundef nonnull align 8 dereferenceable(16) %0, ptr noundef nonnull align 8 dereferenceable(16) %1) #4 {
  %3 = alloca i1, align 1
  %4 = alloca ptr, align 8
  %5 = alloca ptr, align 8
  store ptr %0, ptr %4, align 8
  store ptr %1, ptr %5, align 8
  %6 = load ptr, ptr %4, align 8
  %7 = call noundef i64 @_ZNK9mem_cfg_t8get_baseEv(ptr noundef nonnull align 8 dereferenceable(16) %6)
  %8 = load ptr, ptr %5, align 8
  %9 = call noundef i64 @_ZNK9mem_cfg_t8get_baseEv(ptr noundef nonnull align 8 dereferenceable(16) %8)
  %10 = icmp eq i64 %7, %9
  br i1 %10, label %11, label %17

11:                                               ; preds = %2
  %12 = load ptr, ptr %4, align 8
  %13 = call noundef i64 @_ZNK9mem_cfg_t8get_sizeEv(ptr noundef nonnull align 8 dereferenceable(16) %12)
  %14 = load ptr, ptr %5, align 8
  %15 = call noundef i64 @_ZNK9mem_cfg_t8get_sizeEv(ptr noundef nonnull align 8 dereferenceable(16) %14)
  %16 = icmp ult i64 %13, %15
  store i1 %16, ptr %3, align 1
  br label %23

17:                                               ; preds = %2
  %18 = load ptr, ptr %4, align 8
  %19 = call noundef i64 @_ZNK9mem_cfg_t8get_baseEv(ptr noundef nonnull align 8 dereferenceable(16) %18)
  %20 = load ptr, ptr %5, align 8
  %21 = call noundef i64 @_ZNK9mem_cfg_t8get_baseEv(ptr noundef nonnull align 8 dereferenceable(16) %20)
  %22 = icmp ult i64 %19, %21
  store i1 %22, ptr %3, align 1
  br label %23

23:                                               ; preds = %17, %11
  %24 = load i1, ptr %3, align 1
  ret i1 %24
}